; Function Attrs: nounwind uwtable
define dso_local ptr @fed_mgr_get_cluster_name(i32 noundef %0) local_unnamed_addr #0 {
  %2 = alloca i32, align 4
  call void @llvm.lifetime.start.p0(i64 4, ptr nonnull %2) #16
  store i32 %0, ptr %2, align 4
  %3 = load ptr, ptr @fed_mgr_fed_rec, align 8
  %4 = getelementptr inbounds nuw i8, ptr %3, i64 16
  %5 = load ptr, ptr %4, align 8
  %6 = call ptr @list_find_first(ptr noundef %5, ptr noundef nonnull @_find_sibling_by_id, ptr noundef nonnull %2) #16
  call void @llvm.lifetime.end.p0(i64 4, ptr nonnull %2) #16
  %.not = icmp eq ptr %6, null
  br i1 %.not, label %11, label %7

7:                                                ; preds = %1
  %8 = getelementptr inbounds nuw i8, ptr %6, i64 280
  %9 = load ptr, ptr %8, align 8
  %10 = call ptr @xstrdup(ptr noundef %9) #16
  br label %11

11:                                               ; preds = %7, %1
  %.0 = phi ptr [ %10, %7 ], [ null, %1 ]
  ret ptr %.0
}